target datalayout = "e-m:e-p270:32:32-p271:32:32-p272:64:64-i64:64-i128:128-f80:128-n8:16:32:64-S128"
target triple = "x86_64-pc-linux-gnu"

%"class.icu_77::UObject" = type { ptr }
%"class.icu_77::UnicodeString" = type { %"class.icu_77::Replaceable", %"union.icu_77::UnicodeString::StackBufferOrFields" }
%"class.icu_77::Replaceable" = type { %"class.icu_77::UObject" }
%"union.icu_77::UnicodeString::StackBufferOrFields" = type { %struct.anon.0, [32 x i8] }
%struct.anon.0 = type { i16, i32, i32, ptr }
%"class.icu_77::Char16Ptr" = type { ptr }

; Function Attrs: inlinehint mustprogress nounwind uwtable
define linkonce_odr void @_ZN6icu_779Char16PtrD2Ev(ptr noundef nonnull align 8 dereferenceable(8) %0) unnamed_addr #2 comdat align 2 {
  %2 = alloca ptr, align 8
  store ptr %0, ptr %2, align 8, !tbaa !33
  %3 = load ptr, ptr %2, align 8
  %4 = getelementptr inbounds nuw %"class.icu_77::Char16Ptr", ptr %3, i32 0, i32 0
  %5 = load ptr, ptr %4, align 8, !tbaa !35
  call void asm sideeffect "", "rm,~{memory},~{dirflag},~{fpsr},~{flags}"(ptr %5) #11, !srcloc !37
  ret void
}

; Function Attrs: inlinehint mustprogress nounwind uwtable
define linkonce_odr void @_ZN6icu_779Char16PtrC2EPDs(ptr noundef nonnull align 8 dereferenceable(8) %0, ptr noundef %1) unnamed_addr #2 comdat align 2 {
  %3 = alloca ptr, align 8
  %4 = alloca ptr, align 8
  store ptr %0, ptr %3, align 8, !tbaa !33
  store ptr %1, ptr %4, align 8, !tbaa !31
  %5 = load ptr, ptr %3, align 8
  %6 = getelementptr inbounds nuw %"class.icu_77::Char16Ptr", ptr %5, i32 0, i32 0
  %7 = load ptr, ptr %4, align 8, !tbaa !31
  store ptr %7, ptr %6, align 8, !tbaa !35
  ret void
}

; Function Attrs: inlinehint mustprogress nounwind uwtable
define internal noundef signext i8 @_ZL9U_FAILURE10UErrorCode(i32 noundef %0) #2 {
  %2 = alloca i32, align 4
  store i32 %0, ptr %2, align 4, !tbaa !15
  %3 = load i32, ptr %2, align 4, !tbaa !15
  %4 = icmp sgt i32 %3, 0
  %5 = zext i1 %4 to i8
  ret i8 %5
}

; Function Attrs: mustprogress uwtable
define i32 @uplrules_selectFormatted_77(ptr noundef %0, ptr noundef %1, ptr noundef %2, i32 noundef %3, ptr noundef %4) #1 personality ptr @__gxx_personality_v0 {
  %6 = alloca i32, align 4
  %7 = alloca ptr, align 8
  %8 = alloca ptr, align 8
  %9 = alloca ptr, align 8
  %10 = alloca i32, align 4
  %11 = alloca ptr, align 8
  %12 = alloca ptr, align 8
  %13 = alloca i32, align 4
  %14 = alloca %"class.icu_77::UnicodeString", align 8
  %15 = alloca %"class.icu_77::Char16Ptr", align 8
  %16 = alloca ptr, align 8
  %17 = alloca i32, align 4
  store ptr %0, ptr %7, align 8, !tbaa !25
  store ptr %1, ptr %8, align 8, !tbaa !38
  store ptr %2, ptr %9, align 8, !tbaa !31
  store i32 %3, ptr %10, align 4, !tbaa !14
  store ptr %4, ptr %11, align 8, !tbaa !22
  %18 = load ptr, ptr %11, align 8, !tbaa !22
  %19 = load i32, ptr %18, align 4, !tbaa !15
  %20 = call noundef signext i8 @_ZL9U_FAILURE10UErrorCode(i32 noundef %19)
  %21 = icmp ne i8 %20, 0
  br i1 %21, label %22, label %23

22:                                               ; preds = %5
  store i32 0, ptr %6, align 4
  br label %62

23:                                               ; preds = %5
  %24 = load ptr, ptr %9, align 8, !tbaa !31
  %25 = icmp eq ptr %24, null
  br i1 %25, label %26, label %29

26:                                               ; preds = %23
  %27 = load i32, ptr %10, align 4, !tbaa !14
  %28 = icmp ne i32 %27, 0
  br i1 %28, label %32, label %34

29:                                               ; preds = %23
  %30 = load i32, ptr %10, align 4, !tbaa !14
  %31 = icmp slt i32 %30, 0
  br i1 %31, label %32, label %34

32:                                               ; preds = %29, %26
  %33 = load ptr, ptr %11, align 8, !tbaa !22
  store i32 1, ptr %33, align 4, !tbaa !15
  store i32 0, ptr %6, align 4
  br label %62

34:                                               ; preds = %29, %26
  call void @llvm.lifetime.start.p0(i64 8, ptr %12) #11
  %35 = load ptr, ptr %8, align 8, !tbaa !38
  %36 = load ptr, ptr %11, align 8, !tbaa !22
  %37 = call noundef ptr @_ZN6icu_776number4impl41validateUFormattedNumberToDecimalQuantityEPK16UFormattedNumberR10UErrorCode(ptr noundef %35, ptr noundef nonnull align 4 dereferenceable(4) %36)
  store ptr %37, ptr %12, align 8, !tbaa !40
  %38 = load ptr, ptr %11, align 8, !tbaa !22
  %39 = load i32, ptr %38, align 4, !tbaa !15
  %40 = call noundef signext i8 @_ZL9U_FAILURE10UErrorCode(i32 noundef %39)
  %41 = icmp ne i8 %40, 0
  br i1 %41, label %42, label %43

42:                                               ; preds = %34
  store i32 0, ptr %6, align 4
  store i32 1, ptr %13, align 4
  br label %61

43:                                               ; preds = %34
  call void @llvm.lifetime.start.p0(i64 64, ptr %14) #11
  %44 = load ptr, ptr %7, align 8, !tbaa !25
  %45 = load ptr, ptr %12, align 8, !tbaa !40
  call void @_ZNK6icu_7711PluralRules6selectERKNS_13IFixedDecimalE(ptr dead_on_unwind writable sret(%"class.icu_77::UnicodeString") align 8 %14, ptr noundef nonnull align 8 dereferenceable(28) %44, ptr noundef nonnull align 8 dereferenceable(8) %45)
  %46 = load ptr, ptr %9, align 8, !tbaa !31
  invoke void @_ZN6icu_779Char16PtrC2EPDs(ptr noundef nonnull align 8 dereferenceable(8) %15, ptr noundef %46)
          to label %47 unwind label %52

47:                                               ; preds = %43
  %48 = load i32, ptr %10, align 4, !tbaa !14
  %49 = load ptr, ptr %11, align 8, !tbaa !22
  %50 = invoke noundef i32 @_ZNK6icu_7713UnicodeString7extractENS_9Char16PtrEiR10UErrorCode(ptr noundef nonnull align 8 dereferenceable(64) %14, ptr noundef %15, i32 noundef %48, ptr noundef nonnull align 4 dereferenceable(4) %49)
          to label %51 unwind label %56

51:                                               ; preds = %47
  store i32 %50, ptr %6, align 4
  call void @_ZN6icu_779Char16PtrD2Ev(ptr noundef nonnull align 8 dereferenceable(8) %15) #11
  store i32 1, ptr %13, align 4
  call void @_ZN6icu_7713UnicodeStringD1Ev(ptr noundef nonnull align 8 dereferenceable(64) %14) #11
  call void @llvm.lifetime.end.p0(i64 64, ptr %14) #11
  br label %61

52:                                               ; preds = %43
  %53 = landingpad { ptr, i32 }
          cleanup
  %54 = extractvalue { ptr, i32 } %53, 0
  store ptr %54, ptr %16, align 8
  %55 = extractvalue { ptr, i32 } %53, 1
  store i32 %55, ptr %17, align 4
  br label %60

56:                                               ; preds = %47
  %57 = landingpad { ptr, i32 }
          cleanup
  %58 = extractvalue { ptr, i32 } %57, 0
  store ptr %58, ptr %16, align 8
  %59 = extractvalue { ptr, i32 } %57, 1
  store i32 %59, ptr %17, align 4
  call void @_ZN6icu_779Char16PtrD2Ev(ptr noundef nonnull align 8 dereferenceable(8) %15) #11
  br label %60

60:                                               ; preds = %56, %52
  call void @_ZN6icu_7713UnicodeStringD1Ev(ptr noundef nonnull align 8 dereferenceable(64) %14) #11
  call void @llvm.lifetime.end.p0(i64 64, ptr %14) #11
  call void @llvm.lifetime.end.p0(i64 8, ptr %12) #11
  br label %64

61:                                               ; preds = %51, %42
  call void @llvm.lifetime.end.p0(i64 8, ptr %12) #11
  br label %62

62:                                               ; preds = %61, %32, %22
  %63 = load i32, ptr %6, align 4
  ret i32 %63

64:                                               ; preds = %60
  %65 = load ptr, ptr %16, align 8
  %66 = load i32, ptr %17, align 4
  %67 = insertvalue { ptr, i32 } poison, ptr %65, 0
  %68 = insertvalue { ptr, i32 } %67, i32 %66, 1
  resume { ptr, i32 } %68
}